---
triple:          'arm64-apple-darwin'
binary-path:     server
relocations:
  - { offsetInCU: 0x3F, offset: 0x3F, size: 0x8, addend: 0x0, symName: __ZL6g_data, symObjAddr: 0x66118, symBinAddr: 0x100008000, symSize: 0x0 }
  - { offsetInCU: 0x512B, offset: 0x512B, size: 0x8, addend: 0x0, symName: __ZNSt3__119piecewise_constructE, symObjAddr: 0x2389, symBinAddr: 0x100003F0D, symSize: 0x0 }
  - { offsetInCU: 0xDB6F, offset: 0xDB6F, size: 0x8, addend: 0x0, symName: __ZNSt3__120__throw_length_errorB8ue170006EPKc, symObjAddr: 0x1164, symBinAddr: 0x100002B94, symSize: 0x50 }
  - { offsetInCU: 0xE769, offset: 0xE769, size: 0x8, addend: 0x0, symName: __ZNSt3__127__tree_balance_after_insertB8ue170006IPNS_16__tree_node_baseIPvEEEEvT_S5_, symObjAddr: 0x1914, symBinAddr: 0x100003344, symSize: 0x1A0 }
  - { offsetInCU: 0xEB61, offset: 0xEB61, size: 0x8, addend: 0x0, symName: __ZNSt3__113__tree_removeB8ue170006IPNS_16__tree_node_baseIPvEEEEvT_S5_, symObjAddr: 0x1B60, symBinAddr: 0x100003590, symSize: 0x3A0 }
  - { offsetInCU: 0xF5B9, offset: 0xF5B9, size: 0x8, addend: 0x0, symName: __ZSt28__throw_bad_array_new_lengthB8ue170006v, symObjAddr: 0x11D8, symBinAddr: 0x100002C08, symSize: 0x28 }
  - { offsetInCU: 0x12819, offset: 0x12819, size: 0x8, addend: 0x0, symName: __ZNSt3__13mapINS_12basic_stringIcNS_11char_traitsIcEENS_9allocatorIcEEEES6_NS_4lessIS6_EENS4_INS_4pairIKS6_S6_EEEEED1B8ue170006Ev, symObjAddr: 0x0, symBinAddr: 0x100001A30, symSize: 0x28 }
  - { offsetInCU: 0x128CD, offset: 0x128CD, size: 0x8, addend: 0x0, symName: __ZNSt3__16__treeINS_12__value_typeINS_12basic_stringIcNS_11char_traitsIcEENS_9allocatorIcEEEES7_EENS_19__map_value_compareIS7_S8_NS_4lessIS7_EELb1EEENS5_IS8_EEE7destroyEPNS_11__tree_nodeIS8_PvEE, symObjAddr: 0x1F00, symBinAddr: 0x100003930, symSize: 0x6C }
  - { offsetInCU: 0x14333, offset: 0x14333, size: 0x8, addend: 0x0, symName: _main, symObjAddr: 0x28, symBinAddr: 0x100001A58, symSize: 0xD14 }
  - { offsetInCU: 0x16DCE, offset: 0x16DCE, size: 0x8, addend: 0x0, symName: __ZL9fd_set_nbi, symObjAddr: 0xD3C, symBinAddr: 0x10000276C, symSize: 0x7C }
  - { offsetInCU: 0x16E76, offset: 0x16E76, size: 0x8, addend: 0x0, symName: __ZL12handle_writeP4Conn, symObjAddr: 0xDB8, symBinAddr: 0x1000027E8, symSize: 0xF0 }
  - { offsetInCU: 0x16EE0, offset: 0x16EE0, size: 0x8, addend: 0x0, symName: __ZNSt3__16vectorIP4ConnNS_9allocatorIS2_EEE8__appendEm, symObjAddr: 0x1F80, symBinAddr: 0x1000039B0, symSize: 0x11C }
  - { offsetInCU: 0x17369, offset: 0x17369, size: 0x8, addend: 0x0, symName: __ZNKSt3__16vectorIP4ConnNS_9allocatorIS2_EEE20__throw_length_errorB8ue170006Ev, symObjAddr: 0x209C, symBinAddr: 0x100003ACC, symSize: 0x14 }
  - { offsetInCU: 0x17394, offset: 0x17394, size: 0x8, addend: 0x0, symName: __ZNSt3__16vectorIhNS_9allocatorIhEEE18__insert_with_sizeB8ue170006IPKhS6_EENS_11__wrap_iterIPhEENS7_IS6_EET_T0_l, symObjAddr: 0xEA8, symBinAddr: 0x1000028D8, symSize: 0x2A8 }
  - { offsetInCU: 0x17F01, offset: 0x17F01, size: 0x8, addend: 0x0, symName: __ZNKSt3__16vectorIhNS_9allocatorIhEEE20__throw_length_errorB8ue170006Ev, symObjAddr: 0x1150, symBinAddr: 0x100002B80, symSize: 0x14 }
  - { offsetInCU: 0x17F25, offset: 0x17F25, size: 0x8, addend: 0x0, symName: __ZNSt3__16vectorINS_12basic_stringIcNS_11char_traitsIcEENS_9allocatorIcEEEENS4_IS6_EEE21__push_back_slow_pathIS6_EEvOT_, symObjAddr: 0x1274, symBinAddr: 0x100002CA4, symSize: 0x16C }
  - { offsetInCU: 0x18557, offset: 0x18557, size: 0x8, addend: 0x0, symName: __ZNKSt3__16vectorINS_12basic_stringIcNS_11char_traitsIcEENS_9allocatorIcEEEENS4_IS6_EEE20__throw_length_errorB8ue170006Ev, symObjAddr: 0x13E0, symBinAddr: 0x100002E10, symSize: 0x14 }
  - { offsetInCU: 0x1856B, offset: 0x1856B, size: 0x8, addend: 0x0, symName: __ZNSt3__16__treeINS_12__value_typeINS_12basic_stringIcNS_11char_traitsIcEENS_9allocatorIcEEEES7_EENS_19__map_value_compareIS7_S8_NS_4lessIS7_EELb1EEENS5_IS8_EEE4findIS7_EENS_15__tree_iteratorIS8_PNS_11__tree_nodeIS8_PvEElEERKT_, symObjAddr: 0x13F4, symBinAddr: 0x100002E24, symSize: 0x108 }
  - { offsetInCU: 0x18847, offset: 0x18847, size: 0x8, addend: 0x0, symName: __ZNSt3__16__treeINS_12__value_typeINS_12basic_stringIcNS_11char_traitsIcEENS_9allocatorIcEEEES7_EENS_19__map_value_compareIS7_S8_NS_4lessIS7_EELb1EEENS5_IS8_EEE5eraseENS_21__tree_const_iteratorIS8_PNS_11__tree_nodeIS8_PvEElEE, symObjAddr: 0x1AB4, symBinAddr: 0x1000034E4, symSize: 0xAC }
  - { offsetInCU: 0x18C42, offset: 0x18C42, size: 0x8, addend: 0x0, symName: __ZNSt3__16__treeINS_12__value_typeINS_12basic_stringIcNS_11char_traitsIcEENS_9allocatorIcEEEES7_EENS_19__map_value_compareIS7_S8_NS_4lessIS7_EELb1EEENS5_IS8_EEE25__emplace_unique_key_argsIS7_JRKNS_21piecewise_construct_tENS_5tupleIJRKS7_EEENSJ_IJEEEEEENS_4pairINS_15__tree_iteratorIS8_PNS_11__tree_nodeIS8_PvEElEEbEERKT_DpOT0_, symObjAddr: 0x1718, symBinAddr: 0x100003148, symSize: 0x1E8 }
  - { offsetInCU: 0x19607, offset: 0x19607, size: 0x8, addend: 0x0, symName: __ZNSt3__16vectorIhNS_9allocatorIhEEE18__assign_with_sizeB8ue170006INS_11__wrap_iterIPKcEES8_EEvT_T0_l, symObjAddr: 0x14FC, symBinAddr: 0x100002F2C, symSize: 0x21C }
  - { offsetInCU: 0x19E74, offset: 0x19E74, size: 0x8, addend: 0x0, symName: __ZNSt3__16__treeINS_12__value_typeINS_12basic_stringIcNS_11char_traitsIcEENS_9allocatorIcEEEES7_EENS_19__map_value_compareIS7_S8_NS_4lessIS7_EELb1EEENS5_IS8_EEE25__emplace_unique_key_argsIS7_JRKNS_21piecewise_construct_tENS_5tupleIJRKS7_EEENSJ_IJEEEEEENS_4pairINS_15__tree_iteratorIS8_PNS_11__tree_nodeIS8_PvEElEEbEERKT_DpOT0_, symObjAddr: 0x1718, symBinAddr: 0x100003148, symSize: 0x1E8 }
  - { offsetInCU: 0x19E98, offset: 0x19E98, size: 0x8, addend: 0x0, symName: __ZL12handle_writeP4Conn, symObjAddr: 0xDB8, symBinAddr: 0x1000027E8, symSize: 0xF0 }
  - { offsetInCU: 0x1A11F, offset: 0x1A11F, size: 0x8, addend: 0x0, symName: __ZNSt3__16vectorIhNS_9allocatorIhEEE18__insert_with_sizeB8ue170006IPKhS6_EENS_11__wrap_iterIPhEENS7_IS6_EET_T0_l, symObjAddr: 0xEA8, symBinAddr: 0x1000028D8, symSize: 0x2A8 }
  - { offsetInCU: 0x1A140, offset: 0x1A140, size: 0x8, addend: 0x0, symName: __ZNKSt3__16vectorI6pollfdNS_9allocatorIS1_EEE20__throw_length_errorB8ue170006Ev, symObjAddr: 0x1F6C, symBinAddr: 0x10000399C, symSize: 0x14 }
  - { offsetInCU: 0x1A16A, offset: 0x1A16A, size: 0x8, addend: 0x0, symName: __ZNSt3__16vectorIP4ConnNS_9allocatorIS2_EEE8__appendEm, symObjAddr: 0x1F80, symBinAddr: 0x1000039B0, symSize: 0x11C }
  - { offsetInCU: 0x1A175, offset: 0x1A175, size: 0x8, addend: 0x0, symName: __ZNSt3__16vectorINS_12basic_stringIcNS_11char_traitsIcEENS_9allocatorIcEEEENS4_IS6_EEED1B8ue170006Ev, symObjAddr: 0x1200, symBinAddr: 0x100002C30, symSize: 0x74 }
  - { offsetInCU: 0x1A444, offset: 0x1A444, size: 0x8, addend: 0x0, symName: __ZL9fd_set_nbi.cold.2, symObjAddr: 0x20F4, symBinAddr: 0x100003B50, symSize: 0x44 }
  - { offsetInCU: 0x1A47B, offset: 0x1A47B, size: 0x8, addend: 0x0, symName: __ZL9fd_set_nbi.cold.1, symObjAddr: 0x20B0, symBinAddr: 0x100003B0C, symSize: 0x44 }
  - { offsetInCU: 0x1A4D2, offset: 0x1A4D2, size: 0x8, addend: 0x0, symName: __ZL12handle_writeP4Conn.cold.1, symObjAddr: 0x2138, symBinAddr: 0x100003B94, symSize: 0x28 }
  - { offsetInCU: 0x1AA3D, offset: 0x1AA3D, size: 0x8, addend: 0x0, symName: __ZNKSt3__16vectorIhNS_9allocatorIhEEE20__throw_length_errorB8ue170006Ev, symObjAddr: 0x1150, symBinAddr: 0x100002B80, symSize: 0x14 }
  - { offsetInCU: 0x1AA67, offset: 0x1AA67, size: 0x8, addend: 0x0, symName: __ZNSt3__120__throw_length_errorB8ue170006EPKc, symObjAddr: 0x1164, symBinAddr: 0x100002B94, symSize: 0x50 }
  - { offsetInCU: 0x1AA72, offset: 0x1AA72, size: 0x8, addend: 0x0, symName: __ZNSt12length_errorC1B8ue170006EPKc, symObjAddr: 0x11B4, symBinAddr: 0x100002BE4, symSize: 0x24 }
  - { offsetInCU: 0x1AD15, offset: 0x1AD15, size: 0x8, addend: 0x0, symName: __ZNKSt3__16vectorINS_12basic_stringIcNS_11char_traitsIcEENS_9allocatorIcEEEENS4_IS6_EEE20__throw_length_errorB8ue170006Ev, symObjAddr: 0x13E0, symBinAddr: 0x100002E10, symSize: 0x14 }
  - { offsetInCU: 0x1AD3F, offset: 0x1AD3F, size: 0x8, addend: 0x0, symName: __ZNSt3__16__treeINS_12__value_typeINS_12basic_stringIcNS_11char_traitsIcEENS_9allocatorIcEEEES7_EENS_19__map_value_compareIS7_S8_NS_4lessIS7_EELb1EEENS5_IS8_EEE4findIS7_EENS_15__tree_iteratorIS8_PNS_11__tree_nodeIS8_PvEElEERKT_, symObjAddr: 0x13F4, symBinAddr: 0x100002E24, symSize: 0x108 }
  - { offsetInCU: 0x1B69C, offset: 0x1B69C, size: 0x8, addend: 0x0, symName: __ZNKSt3__112basic_stringIcNS_11char_traitsIcEENS_9allocatorIcEEE20__throw_length_errorB8ue170006Ev, symObjAddr: 0x1900, symBinAddr: 0x100003330, symSize: 0x14 }
  - { offsetInCU: 0x1B6C6, offset: 0x1B6C6, size: 0x8, addend: 0x0, symName: __ZNSt3__127__tree_balance_after_insertB8ue170006IPNS_16__tree_node_baseIPvEEEEvT_S5_, symObjAddr: 0x1914, symBinAddr: 0x100003344, symSize: 0x1A0 }
  - { offsetInCU: 0x1BAB7, offset: 0x1BAB7, size: 0x8, addend: 0x0, symName: __ZNKSt3__16vectorIP4ConnNS_9allocatorIS2_EEE20__throw_length_errorB8ue170006Ev, symObjAddr: 0x209C, symBinAddr: 0x100003ACC, symSize: 0x14 }
  - { offsetInCU: 0x1BAE1, offset: 0x1BAE1, size: 0x8, addend: 0x0, symName: __ZL9fd_set_nbi.cold.1, symObjAddr: 0x20B0, symBinAddr: 0x100003B0C, symSize: 0x44 }
...
